target datalayout = "e-m:e-p270:32:32-p271:32:32-p272:64:64-i64:64-i128:128-f80:128-n8:16:32:64-S128"
target triple = "x86_64-pc-linux-gnu"

%struct.h5tools_context_t = type { i64, i64, i32, i32, [32 x i64], [32 x i64], i32, i64, i32, i64, i32, i32, [32 x i64], [32 x i64], i64, ptr, ptr, i32, i32 }
%struct.h5tool_format_t = type { i8, ptr, ptr, ptr, ptr, ptr, ptr, ptr, ptr, ptr, ptr, ptr, ptr, ptr, ptr, ptr, ptr, ptr, i32, i32, i32, ptr, ptr, ptr, i32, ptr, ptr, ptr, ptr, ptr, ptr, ptr, ptr, ptr, ptr, ptr, ptr, ptr, ptr, ptr, ptr, i32, i64, ptr, ptr, ptr, ptr, ptr, i32, ptr, i32, i32, ptr, i32, ptr, ptr, ptr, ptr, i32, i32 }

@.str = private unnamed_addr constant [3 x i8] c"%s\00", align 1
@.str.1 = private unnamed_addr constant [2 x i8] c",\00", align 1
@.str.4 = private unnamed_addr constant [6 x i8] c"%s%s \00", align 1
@.str.5 = private unnamed_addr constant [6 x i8] c"START\00", align 1
@.str.6 = private unnamed_addr constant [6 x i8] c"%s%lu\00", align 1
@.str.7 = private unnamed_addr constant [2 x i8] c"(\00", align 1
@.str.8 = private unnamed_addr constant [2 x i8] c")\00", align 1
@.str.9 = private unnamed_addr constant [2 x i8] c"\0A\00", align 1
@.str.10 = private unnamed_addr constant [4 x i8] c"%s \00", align 1
@.str.11 = private unnamed_addr constant [7 x i8] c"STRIDE\00", align 1
@.str.12 = private unnamed_addr constant [6 x i8] c"COUNT\00", align 1
@.str.13 = private unnamed_addr constant [5 x i8] c"%s%s\00", align 1
@.str.14 = private unnamed_addr constant [14 x i8] c"H5S_UNLIMITED\00", align 1
@.str.15 = private unnamed_addr constant [6 x i8] c"BLOCK\00", align 1
@.str.17 = private unnamed_addr constant [1 x i8] zeroinitializer, align 1

; Function Attrs: nounwind uwtable
define void @h5tools_str_indent(ptr noundef %0, ptr noundef %1, ptr noundef %2) #0 {
  %4 = alloca ptr, align 8
  %5 = alloca ptr, align 8
  %6 = alloca ptr, align 8
  %7 = alloca i32, align 4
  %8 = alloca i32, align 4
  store ptr %0, ptr %4, align 8, !tbaa !3
  store ptr %1, ptr %5, align 8, !tbaa !19
  store ptr %2, ptr %6, align 8, !tbaa !21
  call void @llvm.lifetime.start.p0(i64 4, ptr %7) #12
  call void @llvm.lifetime.start.p0(i64 4, ptr %8) #12
  store i32 0, ptr %8, align 4, !tbaa !15
  %9 = load ptr, ptr %6, align 8, !tbaa !21
  %10 = getelementptr inbounds nuw %struct.h5tools_context_t, ptr %9, i32 0, i32 10
  %11 = load i32, ptr %10, align 8, !tbaa !43
  %12 = icmp ugt i32 %11, 0
  br i1 %12, label %13, label %17

13:                                               ; preds = %3
  %14 = load ptr, ptr %6, align 8, !tbaa !21
  %15 = getelementptr inbounds nuw %struct.h5tools_context_t, ptr %14, i32 0, i32 10
  %16 = load i32, ptr %15, align 8, !tbaa !43
  store i32 %16, ptr %8, align 4, !tbaa !15
  br label %21

17:                                               ; preds = %3
  %18 = load ptr, ptr %6, align 8, !tbaa !21
  %19 = getelementptr inbounds nuw %struct.h5tools_context_t, ptr %18, i32 0, i32 11
  %20 = load i32, ptr %19, align 4, !tbaa !44
  store i32 %20, ptr %8, align 4, !tbaa !15
  br label %21

21:                                               ; preds = %17, %13
  store i32 0, ptr %7, align 4, !tbaa !15
  br label %22

22:                                               ; preds = %40, %21
  %23 = load i32, ptr %7, align 4, !tbaa !15
  %24 = load i32, ptr %8, align 4, !tbaa !15
  %25 = icmp ult i32 %23, %24
  br i1 %25, label %26, label %43

26:                                               ; preds = %22
  %27 = load ptr, ptr %4, align 8, !tbaa !3
  %28 = load ptr, ptr %5, align 8, !tbaa !19
  %29 = getelementptr inbounds nuw %struct.h5tool_format_t, ptr %28, i32 0, i32 49
  %30 = load ptr, ptr %29, align 8, !tbaa !38
  %31 = icmp ne ptr %30, null
  br i1 %31, label %32, label %36

32:                                               ; preds = %26
  %33 = load ptr, ptr %5, align 8, !tbaa !19
  %34 = getelementptr inbounds nuw %struct.h5tool_format_t, ptr %33, i32 0, i32 49
  %35 = load ptr, ptr %34, align 8, !tbaa !38
  br label %37

36:                                               ; preds = %26
  br label %37

37:                                               ; preds = %36, %32
  %38 = phi ptr [ %35, %32 ], [ @.str.17, %36 ]
  %39 = call ptr (ptr, ptr, ...) @h5tools_str_append(ptr noundef %27, ptr noundef @.str, ptr noundef %38)
  br label %40

40:                                               ; preds = %37
  %41 = load i32, ptr %7, align 4, !tbaa !15
  %42 = add i32 %41, 1
  store i32 %42, ptr %7, align 4, !tbaa !15
  br label %22, !llvm.loop !45

43:                                               ; preds = %22
  call void @llvm.lifetime.end.p0(i64 4, ptr %8) #12
  call void @llvm.lifetime.end.p0(i64 4, ptr %7) #12
  ret void
}

; Function Attrs: nounwind uwtable
define void @h5tools_str_dump_space_slabs(ptr noundef %0, i64 noundef %1, ptr noundef %2, ptr noundef %3) #0 {
  %5 = alloca ptr, align 8
  %6 = alloca i64, align 8
  %7 = alloca ptr, align 8
  %8 = alloca ptr, align 8
  %9 = alloca [32 x i64], align 16
  %10 = alloca [32 x i64], align 16
  %11 = alloca [32 x i64], align 16
  %12 = alloca [32 x i64], align 16
  %13 = alloca i32, align 4
  %14 = alloca i32, align 4
  store ptr %0, ptr %5, align 8, !tbaa !3
  store i64 %1, ptr %6, align 8, !tbaa !17
  store ptr %2, ptr %7, align 8, !tbaa !19
  store ptr %3, ptr %8, align 8, !tbaa !21
  call void @llvm.lifetime.start.p0(i64 256, ptr %9) #12
  call void @llvm.lifetime.start.p0(i64 256, ptr %10) #12
  call void @llvm.lifetime.start.p0(i64 256, ptr %11) #12
  call void @llvm.lifetime.start.p0(i64 256, ptr %12) #12
  call void @llvm.lifetime.start.p0(i64 4, ptr %13) #12
  call void @llvm.lifetime.start.p0(i64 4, ptr %14) #12
  %15 = load i64, ptr %6, align 8, !tbaa !17
  %16 = call i32 @H5Sget_simple_extent_ndims(i64 noundef %15)
  store i32 %16, ptr %14, align 4, !tbaa !15
  %17 = load i64, ptr %6, align 8, !tbaa !17
  %18 = getelementptr inbounds [32 x i64], ptr %9, i64 0, i64 0
  %19 = getelementptr inbounds [32 x i64], ptr %10, i64 0, i64 0
  %20 = getelementptr inbounds [32 x i64], ptr %11, i64 0, i64 0
  %21 = getelementptr inbounds [32 x i64], ptr %12, i64 0, i64 0
  %22 = call i32 @H5Sget_regular_hyperslab(i64 noundef %17, ptr noundef %18, ptr noundef %19, ptr noundef %20, ptr noundef %21)
  %23 = load ptr, ptr %5, align 8, !tbaa !3
  %24 = load ptr, ptr %7, align 8, !tbaa !19
  %25 = getelementptr inbounds nuw %struct.h5tool_format_t, ptr %24, i32 0, i32 49
  %26 = load ptr, ptr %25, align 8, !tbaa !38
  %27 = call ptr (ptr, ptr, ...) @h5tools_str_append(ptr noundef %23, ptr noundef @.str.4, ptr noundef %26, ptr noundef @.str.5)
  store i32 0, ptr %13, align 4, !tbaa !15
  br label %28

28:                                               ; preds = %42, %4
  %29 = load i32, ptr %13, align 4, !tbaa !15
  %30 = load i32, ptr %14, align 4, !tbaa !15
  %31 = icmp slt i32 %29, %30
  br i1 %31, label %32, label %45

32:                                               ; preds = %28
  %33 = load ptr, ptr %5, align 8, !tbaa !3
  %34 = load i32, ptr %13, align 4, !tbaa !15
  %35 = icmp ne i32 %34, 0
  %36 = select i1 %35, ptr @.str.1, ptr @.str.7
  %37 = load i32, ptr %13, align 4, !tbaa !15
  %38 = sext i32 %37 to i64
  %39 = getelementptr inbounds [32 x i64], ptr %9, i64 0, i64 %38
  %40 = load i64, ptr %39, align 8, !tbaa !17
  %41 = call ptr (ptr, ptr, ...) @h5tools_str_append(ptr noundef %33, ptr noundef @.str.6, ptr noundef %36, i64 noundef %40)
  br label %42

42:                                               ; preds = %32
  %43 = load i32, ptr %13, align 4, !tbaa !15
  %44 = add nsw i32 %43, 1
  store i32 %44, ptr %13, align 4, !tbaa !15
  br label %28, !llvm.loop !39

45:                                               ; preds = %28
  %46 = load ptr, ptr %5, align 8, !tbaa !3
  %47 = call ptr (ptr, ptr, ...) @h5tools_str_append(ptr noundef %46, ptr noundef @.str.8)
  %48 = load ptr, ptr %5, align 8, !tbaa !3
  %49 = call ptr (ptr, ptr, ...) @h5tools_str_append(ptr noundef %48, ptr noundef @.str, ptr noundef @.str.9)
  %50 = load ptr, ptr %5, align 8, !tbaa !3
  %51 = load ptr, ptr %7, align 8, !tbaa !19
  %52 = load ptr, ptr %8, align 8, !tbaa !21
  call void @h5tools_str_indent(ptr noundef %50, ptr noundef %51, ptr noundef %52)
  %53 = load ptr, ptr %5, align 8, !tbaa !3
  %54 = call ptr (ptr, ptr, ...) @h5tools_str_append(ptr noundef %53, ptr noundef @.str.10, ptr noundef @.str.11)
  store i32 0, ptr %13, align 4, !tbaa !15
  br label %55

55:                                               ; preds = %69, %45
  %56 = load i32, ptr %13, align 4, !tbaa !15
  %57 = load i32, ptr %14, align 4, !tbaa !15
  %58 = icmp slt i32 %56, %57
  br i1 %58, label %59, label %72

59:                                               ; preds = %55
  %60 = load ptr, ptr %5, align 8, !tbaa !3
  %61 = load i32, ptr %13, align 4, !tbaa !15
  %62 = icmp ne i32 %61, 0
  %63 = select i1 %62, ptr @.str.1, ptr @.str.7
  %64 = load i32, ptr %13, align 4, !tbaa !15
  %65 = sext i32 %64 to i64
  %66 = getelementptr inbounds [32 x i64], ptr %10, i64 0, i64 %65
  %67 = load i64, ptr %66, align 8, !tbaa !17
  %68 = call ptr (ptr, ptr, ...) @h5tools_str_append(ptr noundef %60, ptr noundef @.str.6, ptr noundef %63, i64 noundef %67)
  br label %69

69:                                               ; preds = %59
  %70 = load i32, ptr %13, align 4, !tbaa !15
  %71 = add nsw i32 %70, 1
  store i32 %71, ptr %13, align 4, !tbaa !15
  br label %55, !llvm.loop !40

72:                                               ; preds = %55
  %73 = load ptr, ptr %5, align 8, !tbaa !3
  %74 = call ptr (ptr, ptr, ...) @h5tools_str_append(ptr noundef %73, ptr noundef @.str.8)
  %75 = load ptr, ptr %5, align 8, !tbaa !3
  %76 = call ptr (ptr, ptr, ...) @h5tools_str_append(ptr noundef %75, ptr noundef @.str, ptr noundef @.str.9)
  %77 = load ptr, ptr %5, align 8, !tbaa !3
  %78 = load ptr, ptr %7, align 8, !tbaa !19
  %79 = load ptr, ptr %8, align 8, !tbaa !21
  call void @h5tools_str_indent(ptr noundef %77, ptr noundef %78, ptr noundef %79)
  %80 = load ptr, ptr %5, align 8, !tbaa !3
  %81 = call ptr (ptr, ptr, ...) @h5tools_str_append(ptr noundef %80, ptr noundef @.str.10, ptr noundef @.str.12)
  store i32 0, ptr %13, align 4, !tbaa !15
  br label %82

82:                                               ; preds = %109, %72
  %83 = load i32, ptr %13, align 4, !tbaa !15
  %84 = load i32, ptr %14, align 4, !tbaa !15
  %85 = icmp slt i32 %83, %84
  br i1 %85, label %86, label %112

86:                                               ; preds = %82
  %87 = load i32, ptr %13, align 4, !tbaa !15
  %88 = sext i32 %87 to i64
  %89 = getelementptr inbounds [32 x i64], ptr %11, i64 0, i64 %88
  %90 = load i64, ptr %89, align 8, !tbaa !17
  %91 = icmp eq i64 %90, -1
  br i1 %91, label %92, label %98

92:                                               ; preds = %86
  %93 = load ptr, ptr %5, align 8, !tbaa !3
  %94 = load i32, ptr %13, align 4, !tbaa !15
  %95 = icmp ne i32 %94, 0
  %96 = select i1 %95, ptr @.str.1, ptr @.str.7
  %97 = call ptr (ptr, ptr, ...) @h5tools_str_append(ptr noundef %93, ptr noundef @.str.13, ptr noundef %96, ptr noundef @.str.14)
  br label %108

98:                                               ; preds = %86
  %99 = load ptr, ptr %5, align 8, !tbaa !3
  %100 = load i32, ptr %13, align 4, !tbaa !15
  %101 = icmp ne i32 %100, 0
  %102 = select i1 %101, ptr @.str.1, ptr @.str.7
  %103 = load i32, ptr %13, align 4, !tbaa !15
  %104 = sext i32 %103 to i64
  %105 = getelementptr inbounds [32 x i64], ptr %11, i64 0, i64 %104
  %106 = load i64, ptr %105, align 8, !tbaa !17
  %107 = call ptr (ptr, ptr, ...) @h5tools_str_append(ptr noundef %99, ptr noundef @.str.6, ptr noundef %102, i64 noundef %106)
  br label %108

108:                                              ; preds = %98, %92
  br label %109

109:                                              ; preds = %108
  %110 = load i32, ptr %13, align 4, !tbaa !15
  %111 = add nsw i32 %110, 1
  store i32 %111, ptr %13, align 4, !tbaa !15
  br label %82, !llvm.loop !41

112:                                              ; preds = %82
  %113 = load ptr, ptr %5, align 8, !tbaa !3
  %114 = call ptr (ptr, ptr, ...) @h5tools_str_append(ptr noundef %113, ptr noundef @.str.8)
  %115 = load ptr, ptr %5, align 8, !tbaa !3
  %116 = call ptr (ptr, ptr, ...) @h5tools_str_append(ptr noundef %115, ptr noundef @.str, ptr noundef @.str.9)
  %117 = load ptr, ptr %5, align 8, !tbaa !3
  %118 = load ptr, ptr %7, align 8, !tbaa !19
  %119 = load ptr, ptr %8, align 8, !tbaa !21
  call void @h5tools_str_indent(ptr noundef %117, ptr noundef %118, ptr noundef %119)
  %120 = load ptr, ptr %5, align 8, !tbaa !3
  %121 = call ptr (ptr, ptr, ...) @h5tools_str_append(ptr noundef %120, ptr noundef @.str.10, ptr noundef @.str.15)
  store i32 0, ptr %13, align 4, !tbaa !15
  br label %122

122:                                              ; preds = %149, %112
  %123 = load i32, ptr %13, align 4, !tbaa !15
  %124 = load i32, ptr %14, align 4, !tbaa !15
  %125 = icmp slt i32 %123, %124
  br i1 %125, label %126, label %152

126:                                              ; preds = %122
  %127 = load i32, ptr %13, align 4, !tbaa !15
  %128 = sext i32 %127 to i64
  %129 = getelementptr inbounds [32 x i64], ptr %12, i64 0, i64 %128
  %130 = load i64, ptr %129, align 8, !tbaa !17
  %131 = icmp eq i64 %130, -1
  br i1 %131, label %132, label %138

132:                                              ; preds = %126
  %133 = load ptr, ptr %5, align 8, !tbaa !3
  %134 = load i32, ptr %13, align 4, !tbaa !15
  %135 = icmp ne i32 %134, 0
  %136 = select i1 %135, ptr @.str.1, ptr @.str.7
  %137 = call ptr (ptr, ptr, ...) @h5tools_str_append(ptr noundef %133, ptr noundef @.str.13, ptr noundef %136, ptr noundef @.str.14)
  br label %148

138:                                              ; preds = %126
  %139 = load ptr, ptr %5, align 8, !tbaa !3
  %140 = load i32, ptr %13, align 4, !tbaa !15
  %141 = icmp ne i32 %140, 0
  %142 = select i1 %141, ptr @.str.1, ptr @.str.7
  %143 = load i32, ptr %13, align 4, !tbaa !15
  %144 = sext i32 %143 to i64
  %145 = getelementptr inbounds [32 x i64], ptr %12, i64 0, i64 %144
  %146 = load i64, ptr %145, align 8, !tbaa !17
  %147 = call ptr (ptr, ptr, ...) @h5tools_str_append(ptr noundef %139, ptr noundef @.str.6, ptr noundef %142, i64 noundef %146)
  br label %148

148:                                              ; preds = %138, %132
  br label %149

149:                                              ; preds = %148
  %150 = load i32, ptr %13, align 4, !tbaa !15
  %151 = add nsw i32 %150, 1
  store i32 %151, ptr %13, align 4, !tbaa !15
  br label %122, !llvm.loop !42

152:                                              ; preds = %122
  %153 = load ptr, ptr %5, align 8, !tbaa !3
  %154 = call ptr (ptr, ptr, ...) @h5tools_str_append(ptr noundef %153, ptr noundef @.str.8)
  call void @llvm.lifetime.end.p0(i64 4, ptr %14) #12
  call void @llvm.lifetime.end.p0(i64 4, ptr %13) #12
  call void @llvm.lifetime.end.p0(i64 256, ptr %12) #12
  call void @llvm.lifetime.end.p0(i64 256, ptr %11) #12
  call void @llvm.lifetime.end.p0(i64 256, ptr %10) #12
  call void @llvm.lifetime.end.p0(i64 256, ptr %9) #12
  ret void
}