; Function Attrs: nounwind uwtable
define void @h5tools_str_dump_space_slabs(ptr noundef captures(none) %0, i64 noundef %1, ptr noundef readonly captures(none) %2, ptr noundef readonly captures(none) %3) local_unnamed_addr #4 {
  %5 = alloca [32 x i64], align 16
  %6 = alloca [32 x i64], align 16
  %7 = alloca [32 x i64], align 16
  %8 = alloca [32 x i64], align 16
  call void @llvm.lifetime.start.p0(i64 256, ptr nonnull %5) #21
  call void @llvm.lifetime.start.p0(i64 256, ptr nonnull %6) #21
  call void @llvm.lifetime.start.p0(i64 256, ptr nonnull %7) #21
  call void @llvm.lifetime.start.p0(i64 256, ptr nonnull %8) #21
  %9 = tail call i32 @H5Sget_simple_extent_ndims(i64 noundef %1) #21
  %10 = call i32 @H5Sget_regular_hyperslab(i64 noundef %1, ptr noundef nonnull %5, ptr noundef nonnull %6, ptr noundef nonnull %7, ptr noundef nonnull %8) #21
  %11 = getelementptr inbounds nuw i8, ptr %2, i64 384
  %12 = load ptr, ptr %11, align 8, !tbaa !28
  %13 = call ptr (ptr, ptr, ...) @h5tools_str_append(ptr noundef %0, ptr noundef nonnull @.str.4, ptr noundef %12, ptr noundef nonnull @.str.5)
  %14 = icmp sgt i32 %9, 0
  br i1 %14, label %.lr.ph.preheader, label %._crit_edge

.lr.ph.preheader:                                 ; preds = %4
  %wide.trip.count = zext nneg i32 %9 to i64
  br label %.lr.ph

.lr.ph:                                           ; preds = %.lr.ph.preheader, %.lr.ph
  %indvars.iv = phi i64 [ 0, %.lr.ph.preheader ], [ %indvars.iv.next, %.lr.ph ]
  %.not59 = icmp eq i64 %indvars.iv, 0
  %15 = select i1 %.not59, ptr @.str.7, ptr @.str.1
  %16 = getelementptr inbounds nuw [32 x i64], ptr %5, i64 0, i64 %indvars.iv
  %17 = load i64, ptr %16, align 8, !tbaa !22
  %18 = call ptr (ptr, ptr, ...) @h5tools_str_append(ptr noundef %0, ptr noundef nonnull @.str.6, ptr noundef nonnull %15, i64 noundef %17)
  %indvars.iv.next = add nuw nsw i64 %indvars.iv, 1
  %exitcond.not = icmp eq i64 %indvars.iv.next, %wide.trip.count
  br i1 %exitcond.not, label %._crit_edge, label %.lr.ph, !llvm.loop !29

._crit_edge:                                      ; preds = %.lr.ph, %4
  %19 = call ptr (ptr, ptr, ...) @h5tools_str_append(ptr noundef %0, ptr noundef nonnull @.str.8)
  %20 = call ptr (ptr, ptr, ...) @h5tools_str_append(ptr noundef %0, ptr noundef nonnull @.str, ptr noundef nonnull @.str.9)
  %21 = getelementptr inbounds nuw i8, ptr %3, i64 568
  %22 = load i32, ptr %21, align 8, !tbaa !30
  %.not.i = icmp eq i32 %22, 0
  br i1 %.not.i, label %23, label %.lr.ph.i

23:                                               ; preds = %._crit_edge
  %24 = getelementptr inbounds nuw i8, ptr %3, i64 572
  %25 = load i32, ptr %24, align 4, !tbaa !31
  %.not13.i = icmp eq i32 %25, 0
  br i1 %.not13.i, label %h5tools_str_indent.exit, label %.lr.ph.i

.lr.ph.i:                                         ; preds = %23, %._crit_edge
  %.016.i = phi i32 [ %25, %23 ], [ %22, %._crit_edge ]
  br label %26

26:                                               ; preds = %26, %.lr.ph.i
  %.0812.i = phi i32 [ 0, %.lr.ph.i ], [ %29, %26 ]
  %27 = load ptr, ptr %11, align 8, !tbaa !28
  %.not11.i = icmp eq ptr %27, null
  %spec.select.i = select i1 %.not11.i, ptr @.str.17, ptr %27
  %28 = call ptr (ptr, ptr, ...) @h5tools_str_append(ptr noundef %0, ptr noundef nonnull @.str, ptr noundef nonnull %spec.select.i)
  %29 = add nuw i32 %.0812.i, 1
  %exitcond.not.i = icmp eq i32 %29, %.016.i
  br i1 %exitcond.not.i, label %h5tools_str_indent.exit, label %26, !llvm.loop !32

h5tools_str_indent.exit:                          ; preds = %26, %23
  %30 = call ptr (ptr, ptr, ...) @h5tools_str_append(ptr noundef %0, ptr noundef nonnull @.str.10, ptr noundef nonnull @.str.11)
  br i1 %14, label %.lr.ph80.preheader, label %._crit_edge81

.lr.ph80.preheader:                               ; preds = %h5tools_str_indent.exit
  %wide.trip.count92 = zext nneg i32 %9 to i64
  br label %.lr.ph80

.lr.ph80:                                         ; preds = %.lr.ph80.preheader, %.lr.ph80
  %indvars.iv89 = phi i64 [ 0, %.lr.ph80.preheader ], [ %indvars.iv.next90, %.lr.ph80 ]
  %.not58 = icmp eq i64 %indvars.iv89, 0
  %31 = select i1 %.not58, ptr @.str.7, ptr @.str.1
  %32 = getelementptr inbounds nuw [32 x i64], ptr %6, i64 0, i64 %indvars.iv89
  %33 = load i64, ptr %32, align 8, !tbaa !22
  %34 = call ptr (ptr, ptr, ...) @h5tools_str_append(ptr noundef %0, ptr noundef nonnull @.str.6, ptr noundef nonnull %31, i64 noundef %33)
  %indvars.iv.next90 = add nuw nsw i64 %indvars.iv89, 1
  %exitcond93.not = icmp eq i64 %indvars.iv.next90, %wide.trip.count92
  br i1 %exitcond93.not, label %._crit_edge81, label %.lr.ph80, !llvm.loop !33

._crit_edge81:                                    ; preds = %.lr.ph80, %h5tools_str_indent.exit
  %35 = call ptr (ptr, ptr, ...) @h5tools_str_append(ptr noundef %0, ptr noundef nonnull @.str.8)
  %36 = call ptr (ptr, ptr, ...) @h5tools_str_append(ptr noundef %0, ptr noundef nonnull @.str, ptr noundef nonnull @.str.9)
  %37 = load i32, ptr %21, align 8, !tbaa !30
  %.not.i60 = icmp eq i32 %37, 0
  br i1 %.not.i60, label %38, label %.lr.ph.i61

38:                                               ; preds = %._crit_edge81
  %39 = getelementptr inbounds nuw i8, ptr %3, i64 572
  %40 = load i32, ptr %39, align 4, !tbaa !31
  %.not13.i67 = icmp eq i32 %40, 0
  br i1 %.not13.i67, label %h5tools_str_indent.exit68, label %.lr.ph.i61

.lr.ph.i61:                                       ; preds = %38, %._crit_edge81
  %.016.i62 = phi i32 [ %40, %38 ], [ %37, %._crit_edge81 ]
  br label %41

41:                                               ; preds = %41, %.lr.ph.i61
  %.0812.i63 = phi i32 [ 0, %.lr.ph.i61 ], [ %44, %41 ]
  %42 = load ptr, ptr %11, align 8, !tbaa !28
  %.not11.i64 = icmp eq ptr %42, null
  %spec.select.i65 = select i1 %.not11.i64, ptr @.str.17, ptr %42
  %43 = call ptr (ptr, ptr, ...) @h5tools_str_append(ptr noundef %0, ptr noundef nonnull @.str, ptr noundef nonnull %spec.select.i65)
  %44 = add nuw i32 %.0812.i63, 1
  %exitcond.not.i66 = icmp eq i32 %44, %.016.i62
  br i1 %exitcond.not.i66, label %h5tools_str_indent.exit68, label %41, !llvm.loop !32

h5tools_str_indent.exit68:                        ; preds = %41, %38
  %45 = call ptr (ptr, ptr, ...) @h5tools_str_append(ptr noundef %0, ptr noundef nonnull @.str.10, ptr noundef nonnull @.str.12)
  br i1 %14, label %.lr.ph83.preheader, label %._crit_edge84

.lr.ph83.preheader:                               ; preds = %h5tools_str_indent.exit68
  %wide.trip.count97 = zext nneg i32 %9 to i64
  br label %.lr.ph83

.lr.ph83:                                         ; preds = %.lr.ph83.preheader, %54
  %indvars.iv94 = phi i64 [ 0, %.lr.ph83.preheader ], [ %indvars.iv.next95, %54 ]
  %46 = getelementptr inbounds nuw [32 x i64], ptr %7, i64 0, i64 %indvars.iv94
  %47 = load i64, ptr %46, align 8, !tbaa !22
  %48 = icmp eq i64 %47, -1
  %.not57 = icmp eq i64 %indvars.iv94, 0
  %49 = select i1 %.not57, ptr @.str.7, ptr @.str.1
  br i1 %48, label %50, label %52

50:                                               ; preds = %.lr.ph83
  %51 = call ptr (ptr, ptr, ...) @h5tools_str_append(ptr noundef %0, ptr noundef nonnull @.str.13, ptr noundef nonnull %49, ptr noundef nonnull @.str.14)
  br label %54

52:                                               ; preds = %.lr.ph83
  %53 = call ptr (ptr, ptr, ...) @h5tools_str_append(ptr noundef %0, ptr noundef nonnull @.str.6, ptr noundef nonnull %49, i64 noundef %47)
  br label %54

54:                                               ; preds = %50, %52
  %indvars.iv.next95 = add nuw nsw i64 %indvars.iv94, 1
  %exitcond98.not = icmp eq i64 %indvars.iv.next95, %wide.trip.count97
  br i1 %exitcond98.not, label %._crit_edge84, label %.lr.ph83, !llvm.loop !34

._crit_edge84:                                    ; preds = %54, %h5tools_str_indent.exit68
  %55 = call ptr (ptr, ptr, ...) @h5tools_str_append(ptr noundef %0, ptr noundef nonnull @.str.8)
  %56 = call ptr (ptr, ptr, ...) @h5tools_str_append(ptr noundef %0, ptr noundef nonnull @.str, ptr noundef nonnull @.str.9)
  %57 = load i32, ptr %21, align 8, !tbaa !30
  %.not.i69 = icmp eq i32 %57, 0
  br i1 %.not.i69, label %58, label %.lr.ph.i70

58:                                               ; preds = %._crit_edge84
  %59 = getelementptr inbounds nuw i8, ptr %3, i64 572
  %60 = load i32, ptr %59, align 4, !tbaa !31
  %.not13.i76 = icmp eq i32 %60, 0
  br i1 %.not13.i76, label %h5tools_str_indent.exit77, label %.lr.ph.i70

.lr.ph.i70:                                       ; preds = %58, %._crit_edge84
  %.016.i71 = phi i32 [ %60, %58 ], [ %57, %._crit_edge84 ]
  br label %61

61:                                               ; preds = %61, %.lr.ph.i70
  %.0812.i72 = phi i32 [ 0, %.lr.ph.i70 ], [ %64, %61 ]
  %62 = load ptr, ptr %11, align 8, !tbaa !28
  %.not11.i73 = icmp eq ptr %62, null
  %spec.select.i74 = select i1 %.not11.i73, ptr @.str.17, ptr %62
  %63 = call ptr (ptr, ptr, ...) @h5tools_str_append(ptr noundef %0, ptr noundef nonnull @.str, ptr noundef nonnull %spec.select.i74)
  %64 = add nuw i32 %.0812.i72, 1
  %exitcond.not.i75 = icmp eq i32 %64, %.016.i71
  br i1 %exitcond.not.i75, label %h5tools_str_indent.exit77, label %61, !llvm.loop !32

h5tools_str_indent.exit77:                        ; preds = %61, %58
  %65 = call ptr (ptr, ptr, ...) @h5tools_str_append(ptr noundef %0, ptr noundef nonnull @.str.10, ptr noundef nonnull @.str.15)
  br i1 %14, label %.lr.ph86.preheader, label %._crit_edge87

.lr.ph86.preheader:                               ; preds = %h5tools_str_indent.exit77
  %wide.trip.count102 = zext nneg i32 %9 to i64
  br label %.lr.ph86

.lr.ph86:                                         ; preds = %.lr.ph86.preheader, %74
  %indvars.iv99 = phi i64 [ 0, %.lr.ph86.preheader ], [ %indvars.iv.next100, %74 ]
  %66 = getelementptr inbounds nuw [32 x i64], ptr %8, i64 0, i64 %indvars.iv99
  %67 = load i64, ptr %66, align 8, !tbaa !22
  %68 = icmp eq i64 %67, -1
  %.not55 = icmp eq i64 %indvars.iv99, 0
  %69 = select i1 %.not55, ptr @.str.7, ptr @.str.1
  br i1 %68, label %70, label %72

70:                                               ; preds = %.lr.ph86
  %71 = call ptr (ptr, ptr, ...) @h5tools_str_append(ptr noundef %0, ptr noundef nonnull @.str.13, ptr noundef nonnull %69, ptr noundef nonnull @.str.14)
  br label %74

72:                                               ; preds = %.lr.ph86
  %73 = call ptr (ptr, ptr, ...) @h5tools_str_append(ptr noundef %0, ptr noundef nonnull @.str.6, ptr noundef nonnull %69, i64 noundef %67)
  br label %74

74:                                               ; preds = %70, %72
  %indvars.iv.next100 = add nuw nsw i64 %indvars.iv99, 1
  %exitcond103.not = icmp eq i64 %indvars.iv.next100, %wide.trip.count102
  br i1 %exitcond103.not, label %._crit_edge87, label %.lr.ph86, !llvm.loop !35

._crit_edge87:                                    ; preds = %74, %h5tools_str_indent.exit77
  %75 = call ptr (ptr, ptr, ...) @h5tools_str_append(ptr noundef %0, ptr noundef nonnull @.str.8)
  call void @llvm.lifetime.end.p0(i64 256, ptr nonnull %8) #21
  call void @llvm.lifetime.end.p0(i64 256, ptr nonnull %7) #21
  call void @llvm.lifetime.end.p0(i64 256, ptr nonnull %6) #21
  call void @llvm.lifetime.end.p0(i64 256, ptr nonnull %5) #21
  ret void
}